; Function Attrs: nounwind uwtable
define internal i32 @kems_cmp(ptr noundef readonly captures(none) %0, ptr noundef readonly captures(none) %1) #0 {
  %3 = load ptr, ptr %0, align 8, !tbaa !176
  %4 = tail call ptr @EVP_KEM_get0_provider(ptr noundef %3) #14
  %5 = tail call ptr @OSSL_PROVIDER_get0_name(ptr noundef %4) #14
  %6 = load ptr, ptr %1, align 8, !tbaa !176
  %7 = tail call ptr @EVP_KEM_get0_provider(ptr noundef %6) #14
  %8 = tail call ptr @OSSL_PROVIDER_get0_name(ptr noundef %7) #14
  %9 = tail call i32 @strcmp(ptr noundef nonnull dereferenceable(1) %5, ptr noundef nonnull dereferenceable(1) %8) #15
  ret i32 %9
}